target datalayout = "e-m:e-p270:32:32-p271:32:32-p272:64:64-i64:64-i128:128-f80:128-n8:16:32:64-S128"
target triple = "x86_64-pc-linux-gnu"

%struct.scsistat_tap_data = type { i8, ptr, ptr, ptr }

@.str.65 = private unnamed_addr constant [8 x i8] c"Unknown\00", align 1
@.str.79 = private unnamed_addr constant [30 x i8] c"epan/dissectors/packet-scsi.c\00", align 1
@.str.2410 = private unnamed_addr constant [29 x i8] c"%s:%u: failed assertion \22%s\22\00", align 1
@.str.2411 = private unnamed_addr constant [9 x i8] c"tap_data\00", align 1

; Function Attrs: nounwind uwtable
define internal void @scsistat_init(ptr noundef %0, ptr noundef %1) #0 {
  %3 = alloca ptr, align 8
  %4 = alloca ptr, align 8
  %5 = alloca ptr, align 8
  %6 = alloca ptr, align 8
  %7 = alloca i32, align 4
  store ptr %0, ptr %3, align 8
  store ptr %1, ptr %4, align 8
  %8 = load ptr, ptr %3, align 8
  %9 = call ptr @get_srt_table_param_data(ptr noundef %8)
  store ptr %9, ptr %5, align 8
  %10 = load ptr, ptr %5, align 8
  %11 = icmp ne ptr %10, null
  br i1 %11, label %12, label %13

12:                                               ; preds = %2
  br label %15

13:                                               ; preds = %2
  call void (ptr, ...) @proto_report_dissector_bug(ptr noundef @.str.2410, ptr noundef @.str.79, i32 noundef 958, ptr noundef @.str.2411) #11
  unreachable

14:                                               ; No predecessors!
  br label %15

15:                                               ; preds = %14, %12
  %16 = load ptr, ptr %5, align 8
  %17 = getelementptr inbounds %struct.scsistat_tap_data, ptr %16, i32 0, i32 1
  %18 = load ptr, ptr %17, align 8
  %19 = load ptr, ptr %4, align 8
  %20 = load ptr, ptr %5, align 8
  %21 = getelementptr inbounds %struct.scsistat_tap_data, ptr %20, i32 0, i32 3
  %22 = load ptr, ptr %21, align 8
  %23 = load ptr, ptr %5, align 8
  %24 = call ptr @init_srt_table(ptr noundef %18, ptr noundef null, ptr noundef %19, i32 noundef 256, ptr noundef null, ptr noundef %22, ptr noundef %23)
  store ptr %24, ptr %6, align 8
  store i32 0, ptr %7, align 4
  br label %25

25:                                               ; preds = %36, %15
  %26 = load i32, ptr %7, align 4
  %27 = icmp ult i32 %26, 256
  br i1 %27, label %28, label %39

28:                                               ; preds = %25
  %29 = load ptr, ptr %6, align 8
  %30 = load i32, ptr %7, align 4
  %31 = load i32, ptr %7, align 4
  %32 = load ptr, ptr %5, align 8
  %33 = getelementptr inbounds %struct.scsistat_tap_data, ptr %32, i32 0, i32 2
  %34 = load ptr, ptr %33, align 8
  %35 = call ptr @val_to_str_ext_const(i32 noundef %31, ptr noundef %34, ptr noundef @.str.65)
  call void @init_srt_table_row(ptr noundef %29, i32 noundef %30, ptr noundef %35)
  br label %36

36:                                               ; preds = %28
  %37 = load i32, ptr %7, align 4
  %38 = add i32 %37, 1
  store i32 %38, ptr %7, align 4
  br label %25, !llvm.loop !23

39:                                               ; preds = %25
  ret void
}