; Function Attrs: nounwind uwtable
define internal void @scsistat_init(ptr noundef %0, ptr noundef %1) #0 {
  %3 = tail call ptr @get_srt_table_param_data(ptr noundef %0) #10
  %.not = icmp eq ptr %3, null
  br i1 %.not, label %4, label %5

4:                                                ; preds = %2
  tail call void (ptr, ...) @proto_report_dissector_bug(ptr noundef nonnull @.str.2410, ptr noundef nonnull @.str.79, i32 noundef 958, ptr noundef nonnull @.str.2411) #13
  unreachable

5:                                                ; preds = %2
  %6 = getelementptr inbounds nuw i8, ptr %3, i64 8
  %7 = load ptr, ptr %6, align 8
  %8 = getelementptr inbounds nuw i8, ptr %3, i64 24
  %9 = load ptr, ptr %8, align 8
  %10 = tail call ptr @init_srt_table(ptr noundef %7, ptr noundef null, ptr noundef %1, i32 noundef 256, ptr noundef null, ptr noundef %9, ptr noundef nonnull %3) #10
  %11 = getelementptr inbounds nuw i8, ptr %3, i64 16
  br label %12

12:                                               ; preds = %5, %12
  %.012 = phi i32 [ 0, %5 ], [ %15, %12 ]
  %13 = load ptr, ptr %11, align 8
  %14 = tail call ptr @val_to_str_ext_const(i32 noundef %.012, ptr noundef %13, ptr noundef nonnull @.str.65) #10
  tail call void @init_srt_table_row(ptr noundef %10, i32 noundef %.012, ptr noundef %14) #10
  %15 = add nuw nsw i32 %.012, 1
  %exitcond.not = icmp eq i32 %15, 256
  br i1 %exitcond.not, label %16, label %12, !llvm.loop !24

16:                                               ; preds = %12
  ret void
}